target datalayout = "e-m:e-p270:32:32-p271:32:32-p272:64:64-i64:64-i128:128-f80:128-n8:16:32:64-S128"
target triple = "x86_64-pc-linux-gnu"

%struct.AAHD = type { i32, i32, [2 x ptr], [2 x ptr], ptr, [2 x ptr], [3 x i16], i16, [3 x i16], [3 x [3 x float]], ptr }
%class.LibRaw = type { ptr, %struct.libraw_data_t, ptr, %struct.libraw_internal_data_t, [2048 x %struct.decode], ptr, ptr, [10 x %struct.tiff_ifd_t], %class.libraw_memmgr, %struct.libraw_callbacks_t, { i64, i64 }, { i64, i64 }, { i64, i64 }, ptr, ptr, ptr, i64, ptr, ptr, ptr, ptr }
%struct.libraw_data_t = type { ptr, %struct.libraw_image_sizes_t, %struct.libraw_iparams_t, %struct.libraw_lensinfo_t, %struct.libraw_makernotes_t, %struct.libraw_shootinginfo_t, %struct.libraw_output_params_t, %struct.libraw_raw_unpack_params_t, i32, i32, %struct.libraw_colordata_t, %struct.libraw_imgother_t, %struct.libraw_thumbnail_t, %struct.libraw_thumbnail_list_t, %struct.libraw_rawdata_t, ptr }
%struct.libraw_image_sizes_t = type { i16, i16, i16, i16, i16, i16, i16, i16, i32, double, i32, [8 x [4 x i32]], i16, [2 x %struct.libraw_raw_inset_crop_t] }
%struct.libraw_raw_inset_crop_t = type { i16, i16, i16, i16 }
%struct.libraw_iparams_t = type { [4 x i8], [64 x i8], [64 x i8], [64 x i8], [64 x i8], [64 x i8], i32, i32, i32, i32, i32, i32, [6 x [6 x i8]], [6 x [6 x i8]], [5 x i8], i32, ptr }
%struct.libraw_lensinfo_t = type { float, float, float, float, float, [128 x i8], [128 x i8], [128 x i8], [128 x i8], i16, %struct.libraw_nikonlens_t, %struct.libraw_dnglens_t, %struct.libraw_makernotes_lens_t }
%struct.libraw_nikonlens_t = type { float, i8, i8, i8, i8 }
%struct.libraw_dnglens_t = type { float, float, float, float }
%struct.libraw_makernotes_lens_t = type { i64, [128 x i8], i16, i16, i64, i16, i16, [64 x i8], i16, [16 x i8], [16 x i8], float, float, float, float, float, float, float, float, float, float, float, float, float, float, float, i64, [128 x i8], i64, [128 x i8], i64, [128 x i8], i16, float }
%struct.libraw_makernotes_t = type { %struct.libraw_canon_makernotes_t, %struct.libraw_nikon_makernotes_t, %struct.libraw_hasselblad_makernotes_t, %struct.libraw_fuji_info_t, %struct.libraw_olympus_makernotes_t, %struct.libraw_sony_info_t, %struct.libraw_kodak_makernotes_t, %struct.libraw_panasonic_makernotes_t, %struct.libraw_pentax_makernotes_t, %struct.libraw_p1_makernotes_t, %struct.libraw_ricoh_makernotes_t, %struct.libraw_samsung_makernotes_t, %struct.libraw_metadata_common_t }
%struct.libraw_canon_makernotes_t = type { i32, i32, i32, i32, [4 x i32], i32, [4 x i32], i16, i16, i8, i16, i16, i16, i16, i16, i16, i16, i16, i16, i16, i16, i16, i16, i32, float, i16, i16, i16, i32, i16, i32, i32, i16, i32, %struct.libraw_area_t, %struct.libraw_area_t, %struct.libraw_area_t, %struct.libraw_area_t, %struct.libraw_area_t, [2 x i16] }
%struct.libraw_area_t = type { i16, i16, i16, i16 }
%struct.libraw_nikon_makernotes_t = type { double, i16, i16, [7 x i8], i8, i8, [13 x i8], [20 x i8], [4 x i8], [4 x i8], [4 x i8], i8, i8, i8, i8, i8, [2 x i8], i8, i8, i8, i8, i8, [4 x i8], [4 x i8], i8, i16, i32, i32, i32, i32, [4 x double], i8, i8, i8, i32, i32, i32, i8, [4 x i16], i16, %struct.libraw_sensor_highspeed_crop_t, i16, i16, i16, i32, [20 x i8], [20 x i8], i32, i16, double, double, double }
%struct.libraw_sensor_highspeed_crop_t = type { i16, i16, i16, i16 }
%struct.libraw_hasselblad_makernotes_t = type { i32, double, [8 x i8], [64 x i8], [64 x i8], i32, i32, i32, i32, [32 x i8], [64 x i8], i32, [2 x i32], [2 x i32], [4 x [3 x double]] }
%struct.libraw_fuji_info_t = type { float, i16, i16, i16, i16, i16, i16, i16, i16, [33 x i8], [33 x i8], float, i16, i16, [2 x i16], i16, i32, i32, i16, [3 x i16], i16, i16, i16, i16, i16, i32, i16, [13 x i8], [5 x i8], [5 x i8], i32, i16, i32, i16, [9 x i16], [32 x i32], i32, i32, i32, [2 x float], i32 }
%struct.libraw_olympus_makernotes_t = type { [6 x i8], i16, [2 x i32], [5 x i16], i16, [2 x i16], i16, i16, [64 x i32], [5 x double], i16, i8, [3 x i16], [3 x i32], i16, i16, i16, i16, double, [4 x i16], [2 x i32], i8, i32, i16, i16 }
%struct.libraw_sony_info_t = type { i16, i8, i8, i32, i8, i32, i8, i8, i16, [2 x i16], i8, i8, i16, [10 x i8], i8, i8, [4 x i16], i16, i8, i8, i8, i16, i32, i16, [2 x i16], i16, i16, i16, i16, i16, i16, i16, i32, float, i16, i32, i32, i16, [20 x i8], i32, i16, i32, i8, i8, i16, i16, i16, i16, i16, i16, i16, i16, i16, i32, i16, [16 x i8], float }
%struct.libraw_kodak_makernotes_t = type { i16, i16, i16, i16, i16, i16, [3 x [3 x float]], [3 x [3 x float]], [3 x [3 x float]], [3 x [3 x float]], [3 x [3 x float]], [3 x [3 x float]], i16, i16, i16, i16, float, float }
%struct.libraw_panasonic_makernotes_t = type { i16, i16, [8 x float], i32, float, [3 x i32], i16, i16, i32, i32 }
%struct.libraw_pentax_makernotes_t = type { [4 x i8], [2 x i16], [2 x i16], i16, i32, i32, i16, i16, i8, i8, i16 }
%struct.libraw_p1_makernotes_t = type { [64 x i8], [64 x i8], [256 x i8], [64 x i8] }
%struct.libraw_ricoh_makernotes_t = type { i16, [2 x i32], [2 x i32], i16, i32, i32, i32, i32, i16, i16, i16, i16, i16, i16, double, double }
%struct.libraw_samsung_makernotes_t = type { [4 x i32], [4 x i32], [2 x i32], [11 x i32], double, i32, [32 x i8] }
%struct.libraw_metadata_common_t = type { float, float, float, float, float, float, float, float, float, float, float, float, float, float, float, float, i16, [128 x i8], float, [4 x %struct.libraw_afinfo_item_t], i32 }
%struct.libraw_afinfo_item_t = type { i32, i16, i32, i32, ptr }
%struct.libraw_shootinginfo_t = type { i16, i16, i16, i16, i16, i16, i16, [64 x i8], [64 x i8] }
%struct.libraw_output_params_t = type { [4 x i32], [4 x i32], [4 x double], [6 x double], [4 x float], float, float, i32, i32, i32, i32, i32, i32, i32, ptr, ptr, ptr, ptr, i32, i32, i32, i32, i32, i32, [4 x i32], i32, i32, float, float, i32, i32, i32, i32, i32, i32, i32, i32, float, float, i32, i32 }
%struct.libraw_raw_unpack_params_t = type { i32, i32, i32, i32, i32, i32, i32, float, [5 x i8], ptr }
%struct.libraw_colordata_t = type { [65536 x i16], [4104 x i32], i32, i32, i32, [4 x i64], float, float, [8 x [8 x i16]], [4 x float], [4 x float], [3 x [4 x float]], [3 x [4 x float]], [3 x [4 x float]], [4 x [3 x float]], %struct.ph1_t, float, float, [64 x i8], [64 x i8], [64 x i8], [64 x i8], [17 x i8], [64 x i8], ptr, i32, [8 x i32], [2 x %struct.libraw_dng_color_t], %struct.libraw_dng_levels_t, [256 x [4 x i32]], [64 x [5 x float]], i32, [2 x %struct.libraw_P1_color_t], i32, i32 }
%struct.ph1_t = type { i32, i32, i32, i32, i32, i32, i32, i32, float }
%struct.libraw_dng_color_t = type { i32, i16, [4 x [4 x float]], [4 x [3 x float]], [3 x [4 x float]] }
%struct.libraw_dng_levels_t = type { i32, [4104 x i32], i32, [4104 x float], float, [4 x i32], [4 x i16], [4 x float], i32, [4 x float], [4 x float], float, float }
%struct.libraw_P1_color_t = type { [9 x float] }
%struct.libraw_imgother_t = type { float, float, float, float, i64, i32, [32 x i32], %struct.libraw_gps_info_t, [512 x i8], [64 x i8], [4 x float] }
%struct.libraw_gps_info_t = type { [3 x float], [3 x float], [3 x float], float, i8, i8, i8, i8, i8 }
%struct.libraw_thumbnail_t = type { i32, i16, i16, i32, i32, ptr }
%struct.libraw_thumbnail_list_t = type { i32, [8 x %struct.libraw_thumbnail_item_t] }
%struct.libraw_thumbnail_item_t = type { i32, i16, i16, i16, i32, i32, i64 }
%struct.libraw_rawdata_t = type { ptr, ptr, ptr, ptr, ptr, ptr, ptr, ptr, ptr, %struct.libraw_iparams_t, %struct.libraw_image_sizes_t, %struct.libraw_internal_output_params_t, %struct.libraw_colordata_t }
%struct.libraw_internal_output_params_t = type { i32, i32, i32, i16, i16 }
%struct.libraw_internal_data_t = type { %struct.internal_data_t, %struct.libraw_internal_output_params_t, %struct.output_data_t, %struct.identify_data_t, %struct.unpacker_data_t }
%struct.internal_data_t = type { ptr, ptr, i32, ptr, i64, i64, [4 x i32] }
%struct.output_data_t = type { ptr, ptr }
%struct.identify_data_t = type { i32, i64, i64, i32, i32, i32 }
%struct.unpacker_data_t = type { i16, [4 x i16], [3 x i16], i32, i64, i64, i64, i64, i64, i64, i32, i32, i32, i32, i32, i32, i32, i32, i32, i32, i32, i32, i32, i32, i32, i32, i32, i64, i32, i32, i32, i32, i32, i32, i32, i32, i32, %struct.pana8_tags_t, [16 x %struct.crx_data_header_t], i32, i32, i16, i16, i32, i32, i32, i32, i32, i32, i32, [20 x i32], i16 }
%struct.pana8_tags_t = type { [6 x i32], [6 x i16], i16, [4 x i16], [17 x i16], [17 x i16], [17 x i16], i16, i16, [5 x i64], [5 x i16], [5 x i32], [5 x i16], [5 x i16] }
%struct.crx_data_header_t = type { i32, i32, i32, i32, i32, i32, i32, i32, i32, i32, i32, i32, i32, i32, i32, i64, i32, ptr, i32, i32, i32, ptr, i32, ptr }
%struct.decode = type { [2 x ptr], i32 }
%struct.tiff_ifd_t = type { i32, i32, i32, i32, i32, i32, i32, i32, i32, i32, i32, i32, i32, i32, i32, ptr, i32, ptr, i32, i32, i32, i32, i32, i32, i32, float, i64, i64, i32, [2 x %struct.libraw_dng_color_t], %struct.libraw_dng_levels_t, i32 }
%class.libraw_memmgr = type <{ ptr, i32, [4 x i8] }>
%struct.libraw_callbacks_t = type { ptr, ptr, ptr, ptr, ptr, ptr, ptr, ptr, ptr, ptr, ptr, ptr, ptr, ptr, ptr, ptr, ptr }

; Function Attrs: inlinehint mustprogress nounwind uwtable
define linkonce_odr noundef i32 @_ZN4AAHD9nr_offsetEii(ptr noundef nonnull align 8 dereferenceable(128) %0, i32 noundef %1, i32 noundef %2) #3 comdat align 2 {
  %4 = alloca ptr, align 8
  %5 = alloca i32, align 4
  %6 = alloca i32, align 4
  store ptr %0, ptr %4, align 8, !tbaa !6
  store i32 %1, ptr %5, align 4, !tbaa !88
  store i32 %2, ptr %6, align 4, !tbaa !88
  %7 = load ptr, ptr %4, align 8
  %8 = load i32, ptr %5, align 4, !tbaa !88
  %9 = getelementptr inbounds nuw %struct.AAHD, ptr %7, i32 0, i32 1
  %10 = load i32, ptr %9, align 4, !tbaa !79
  %11 = mul nsw i32 %8, %10
  %12 = load i32, ptr %6, align 4, !tbaa !88
  %13 = add nsw i32 %11, %12
  ret i32 %13
}

; Function Attrs: mustprogress nounwind uwtable
define void @_ZN4AAHD16illustrate_dlineEi(ptr noundef nonnull align 8 dereferenceable(128) %0, i32 noundef %1) #4 align 2 {
  %3 = alloca ptr, align 8
  %4 = alloca i32, align 4
  %5 = alloca i32, align 4
  %6 = alloca i32, align 4
  %7 = alloca i32, align 4
  %8 = alloca i32, align 4
  %9 = alloca i32, align 4
  store ptr %0, ptr %3, align 8, !tbaa !6
  store i32 %1, ptr %4, align 4, !tbaa !88
  %10 = load ptr, ptr %3, align 8
  call void @llvm.lifetime.start.p0(i64 4, ptr %5) #9
  %11 = getelementptr inbounds nuw %struct.AAHD, ptr %10, i32 0, i32 10
  %12 = load ptr, ptr %11, align 8, !tbaa !13
  %13 = getelementptr inbounds nuw %class.LibRaw, ptr %12, i32 0, i32 1
  %14 = getelementptr inbounds nuw %struct.libraw_data_t, ptr %13, i32 0, i32 1
  %15 = getelementptr inbounds nuw %struct.libraw_image_sizes_t, ptr %14, i32 0, i32 7
  %16 = load i16, ptr %15, align 2, !tbaa !78
  %17 = zext i16 %16 to i32
  store i32 %17, ptr %5, align 4, !tbaa !88
  call void @llvm.lifetime.start.p0(i64 4, ptr %6) #9
  store i32 0, ptr %6, align 4, !tbaa !88
  br label %18

18:                                               ; preds = %154, %2
  %19 = load i32, ptr %6, align 4, !tbaa !88
  %20 = load i32, ptr %5, align 4, !tbaa !88
  %21 = icmp slt i32 %19, %20
  br i1 %21, label %23, label %22

22:                                               ; preds = %18
  call void @llvm.lifetime.end.p0(i64 4, ptr %6) #9
  br label %157

23:                                               ; preds = %18
  call void @llvm.lifetime.start.p0(i64 4, ptr %7) #9
  %24 = load i32, ptr %6, align 4, !tbaa !88
  %25 = add nsw i32 %24, 4
  store i32 %25, ptr %7, align 4, !tbaa !88
  call void @llvm.lifetime.start.p0(i64 4, ptr %8) #9
  %26 = load i32, ptr %4, align 4, !tbaa !88
  %27 = add nsw i32 %26, 4
  store i32 %27, ptr %8, align 4, !tbaa !88
  %28 = getelementptr inbounds nuw %struct.AAHD, ptr %10, i32 0, i32 2
  %29 = getelementptr inbounds [2 x ptr], ptr %28, i64 0, i64 0
  %30 = load ptr, ptr %29, align 8, !tbaa !80
  %31 = load i32, ptr %8, align 4, !tbaa !88
  %32 = load i32, ptr %7, align 4, !tbaa !88
  %33 = call noundef i32 @_ZN4AAHD9nr_offsetEii(ptr noundef nonnull align 8 dereferenceable(128) %10, i32 noundef %31, i32 noundef %32) #9
  %34 = sext i32 %33 to i64
  %35 = getelementptr inbounds [3 x i16], ptr %30, i64 %34
  %36 = getelementptr inbounds [3 x i16], ptr %35, i64 0, i64 2
  store i16 0, ptr %36, align 2, !tbaa !86
  %37 = getelementptr inbounds nuw %struct.AAHD, ptr %10, i32 0, i32 2
  %38 = getelementptr inbounds [2 x ptr], ptr %37, i64 0, i64 0
  %39 = load ptr, ptr %38, align 8, !tbaa !80
  %40 = load i32, ptr %8, align 4, !tbaa !88
  %41 = load i32, ptr %7, align 4, !tbaa !88
  %42 = call noundef i32 @_ZN4AAHD9nr_offsetEii(ptr noundef nonnull align 8 dereferenceable(128) %10, i32 noundef %40, i32 noundef %41) #9
  %43 = sext i32 %42 to i64
  %44 = getelementptr inbounds [3 x i16], ptr %39, i64 %43
  %45 = getelementptr inbounds [3 x i16], ptr %44, i64 0, i64 1
  store i16 0, ptr %45, align 2, !tbaa !86
  %46 = getelementptr inbounds nuw %struct.AAHD, ptr %10, i32 0, i32 2
  %47 = getelementptr inbounds [2 x ptr], ptr %46, i64 0, i64 0
  %48 = load ptr, ptr %47, align 8, !tbaa !80
  %49 = load i32, ptr %8, align 4, !tbaa !88
  %50 = load i32, ptr %7, align 4, !tbaa !88
  %51 = call noundef i32 @_ZN4AAHD9nr_offsetEii(ptr noundef nonnull align 8 dereferenceable(128) %10, i32 noundef %49, i32 noundef %50) #9
  %52 = sext i32 %51 to i64
  %53 = getelementptr inbounds [3 x i16], ptr %48, i64 %52
  %54 = getelementptr inbounds [3 x i16], ptr %53, i64 0, i64 0
  store i16 0, ptr %54, align 2, !tbaa !86
  %55 = getelementptr inbounds nuw %struct.AAHD, ptr %10, i32 0, i32 2
  %56 = getelementptr inbounds [2 x ptr], ptr %55, i64 0, i64 1
  %57 = load ptr, ptr %56, align 8, !tbaa !80
  %58 = load i32, ptr %8, align 4, !tbaa !88
  %59 = load i32, ptr %7, align 4, !tbaa !88
  %60 = call noundef i32 @_ZN4AAHD9nr_offsetEii(ptr noundef nonnull align 8 dereferenceable(128) %10, i32 noundef %58, i32 noundef %59) #9
  %61 = sext i32 %60 to i64
  %62 = getelementptr inbounds [3 x i16], ptr %57, i64 %61
  %63 = getelementptr inbounds [3 x i16], ptr %62, i64 0, i64 2
  store i16 0, ptr %63, align 2, !tbaa !86
  %64 = getelementptr inbounds nuw %struct.AAHD, ptr %10, i32 0, i32 2
  %65 = getelementptr inbounds [2 x ptr], ptr %64, i64 0, i64 1
  %66 = load ptr, ptr %65, align 8, !tbaa !80
  %67 = load i32, ptr %8, align 4, !tbaa !88
  %68 = load i32, ptr %7, align 4, !tbaa !88
  %69 = call noundef i32 @_ZN4AAHD9nr_offsetEii(ptr noundef nonnull align 8 dereferenceable(128) %10, i32 noundef %67, i32 noundef %68) #9
  %70 = sext i32 %69 to i64
  %71 = getelementptr inbounds [3 x i16], ptr %66, i64 %70
  %72 = getelementptr inbounds [3 x i16], ptr %71, i64 0, i64 1
  store i16 0, ptr %72, align 2, !tbaa !86
  %73 = getelementptr inbounds nuw %struct.AAHD, ptr %10, i32 0, i32 2
  %74 = getelementptr inbounds [2 x ptr], ptr %73, i64 0, i64 1
  %75 = load ptr, ptr %74, align 8, !tbaa !80
  %76 = load i32, ptr %8, align 4, !tbaa !88
  %77 = load i32, ptr %7, align 4, !tbaa !88
  %78 = call noundef i32 @_ZN4AAHD9nr_offsetEii(ptr noundef nonnull align 8 dereferenceable(128) %10, i32 noundef %76, i32 noundef %77) #9
  %79 = sext i32 %78 to i64
  %80 = getelementptr inbounds [3 x i16], ptr %75, i64 %79
  %81 = getelementptr inbounds [3 x i16], ptr %80, i64 0, i64 0
  store i16 0, ptr %81, align 2, !tbaa !86
  call void @llvm.lifetime.start.p0(i64 4, ptr %9) #9
  %82 = getelementptr inbounds nuw %struct.AAHD, ptr %10, i32 0, i32 4
  %83 = load ptr, ptr %82, align 8, !tbaa !84
  %84 = load i32, ptr %8, align 4, !tbaa !88
  %85 = load i32, ptr %7, align 4, !tbaa !88
  %86 = call noundef i32 @_ZN4AAHD9nr_offsetEii(ptr noundef nonnull align 8 dereferenceable(128) %10, i32 noundef %84, i32 noundef %85) #9
  %87 = sext i32 %86 to i64
  %88 = getelementptr inbounds i8, ptr %83, i64 %87
  %89 = load i8, ptr %88, align 1, !tbaa !103
  %90 = sext i8 %89 to i32
  %91 = and i32 %90, 1
  store i32 %91, ptr %9, align 4, !tbaa !88
  %92 = load i32, ptr %9, align 4, !tbaa !88
  %93 = sdiv i32 %92, 1
  store i32 %93, ptr %9, align 4, !tbaa !88
  %94 = getelementptr inbounds nuw %struct.AAHD, ptr %10, i32 0, i32 4
  %95 = load ptr, ptr %94, align 8, !tbaa !84
  %96 = load i32, ptr %8, align 4, !tbaa !88
  %97 = load i32, ptr %7, align 4, !tbaa !88
  %98 = call noundef i32 @_ZN4AAHD9nr_offsetEii(ptr noundef nonnull align 8 dereferenceable(128) %10, i32 noundef %96, i32 noundef %97) #9
  %99 = sext i32 %98 to i64
  %100 = getelementptr inbounds i8, ptr %95, i64 %99
  %101 = load i8, ptr %100, align 1, !tbaa !103
  %102 = sext i8 %101 to i32
  %103 = and i32 %102, 4
  %104 = icmp ne i32 %103, 0
  br i1 %104, label %105, label %129

105:                                              ; preds = %23
  %106 = load i32, ptr %9, align 4, !tbaa !88
  %107 = getelementptr inbounds nuw %struct.AAHD, ptr %10, i32 0, i32 6
  %108 = getelementptr inbounds [3 x i16], ptr %107, i64 0, i64 0
  %109 = load i16, ptr %108, align 8, !tbaa !86
  %110 = zext i16 %109 to i32
  %111 = mul nsw i32 %106, %110
  %112 = sdiv i32 %111, 4
  %113 = getelementptr inbounds nuw %struct.AAHD, ptr %10, i32 0, i32 6
  %114 = getelementptr inbounds [3 x i16], ptr %113, i64 0, i64 0
  %115 = load i16, ptr %114, align 8, !tbaa !86
  %116 = zext i16 %115 to i32
  %117 = sdiv i32 %116, 4
  %118 = add nsw i32 %112, %117
  %119 = trunc i32 %118 to i16
  %120 = getelementptr inbounds nuw %struct.AAHD, ptr %10, i32 0, i32 2
  %121 = getelementptr inbounds [2 x ptr], ptr %120, i64 0, i64 1
  %122 = load ptr, ptr %121, align 8, !tbaa !80
  %123 = load i32, ptr %8, align 4, !tbaa !88
  %124 = load i32, ptr %7, align 4, !tbaa !88
  %125 = call noundef i32 @_ZN4AAHD9nr_offsetEii(ptr noundef nonnull align 8 dereferenceable(128) %10, i32 noundef %123, i32 noundef %124) #9
  %126 = sext i32 %125 to i64
  %127 = getelementptr inbounds [3 x i16], ptr %122, i64 %126
  %128 = getelementptr inbounds [3 x i16], ptr %127, i64 0, i64 0
  store i16 %119, ptr %128, align 2, !tbaa !86
  br label %153

129:                                              ; preds = %23
  %130 = load i32, ptr %9, align 4, !tbaa !88
  %131 = getelementptr inbounds nuw %struct.AAHD, ptr %10, i32 0, i32 6
  %132 = getelementptr inbounds [3 x i16], ptr %131, i64 0, i64 2
  %133 = load i16, ptr %132, align 4, !tbaa !86
  %134 = zext i16 %133 to i32
  %135 = mul nsw i32 %130, %134
  %136 = sdiv i32 %135, 4
  %137 = getelementptr inbounds nuw %struct.AAHD, ptr %10, i32 0, i32 6
  %138 = getelementptr inbounds [3 x i16], ptr %137, i64 0, i64 2
  %139 = load i16, ptr %138, align 4, !tbaa !86
  %140 = zext i16 %139 to i32
  %141 = sdiv i32 %140, 4
  %142 = add nsw i32 %136, %141
  %143 = trunc i32 %142 to i16
  %144 = getelementptr inbounds nuw %struct.AAHD, ptr %10, i32 0, i32 2
  %145 = getelementptr inbounds [2 x ptr], ptr %144, i64 0, i64 0
  %146 = load ptr, ptr %145, align 8, !tbaa !80
  %147 = load i32, ptr %8, align 4, !tbaa !88
  %148 = load i32, ptr %7, align 4, !tbaa !88
  %149 = call noundef i32 @_ZN4AAHD9nr_offsetEii(ptr noundef nonnull align 8 dereferenceable(128) %10, i32 noundef %147, i32 noundef %148) #9
  %150 = sext i32 %149 to i64
  %151 = getelementptr inbounds [3 x i16], ptr %146, i64 %150
  %152 = getelementptr inbounds [3 x i16], ptr %151, i64 0, i64 2
  store i16 %143, ptr %152, align 2, !tbaa !86
  br label %153

153:                                              ; preds = %129, %105
  call void @llvm.lifetime.end.p0(i64 4, ptr %9) #9
  call void @llvm.lifetime.end.p0(i64 4, ptr %8) #9
  call void @llvm.lifetime.end.p0(i64 4, ptr %7) #9
  br label %154

154:                                              ; preds = %153
  %155 = load i32, ptr %6, align 4, !tbaa !88
  %156 = add nsw i32 %155, 1
  store i32 %156, ptr %6, align 4, !tbaa !88
  br label %18, !llvm.loop !139

157:                                              ; preds = %22
  call void @llvm.lifetime.end.p0(i64 4, ptr %5) #9
  ret void
}

; Function Attrs: mustprogress uwtable
define void @_ZN4AAHD15illustrate_dirsEv(ptr noundef nonnull align 8 dereferenceable(128) %0) #0 align 2 {
  %2 = alloca ptr, align 8
  %3 = alloca i32, align 4
  store ptr %0, ptr %2, align 8, !tbaa !6
  %4 = load ptr, ptr %2, align 8
  call void @llvm.lifetime.start.p0(i64 4, ptr %3) #9
  store i32 0, ptr %3, align 4, !tbaa !88
  br label %5

5:                                                ; preds = %18, %1
  %6 = load i32, ptr %3, align 4, !tbaa !88
  %7 = getelementptr inbounds nuw %struct.AAHD, ptr %4, i32 0, i32 10
  %8 = load ptr, ptr %7, align 8, !tbaa !13
  %9 = getelementptr inbounds nuw %class.LibRaw, ptr %8, i32 0, i32 1
  %10 = getelementptr inbounds nuw %struct.libraw_data_t, ptr %9, i32 0, i32 1
  %11 = getelementptr inbounds nuw %struct.libraw_image_sizes_t, ptr %10, i32 0, i32 6
  %12 = load i16, ptr %11, align 4, !tbaa !18
  %13 = zext i16 %12 to i32
  %14 = icmp slt i32 %6, %13
  br i1 %14, label %16, label %15

15:                                               ; preds = %5
  call void @llvm.lifetime.end.p0(i64 4, ptr %3) #9
  br label %21

16:                                               ; preds = %5
  %17 = load i32, ptr %3, align 4, !tbaa !88
  call void @_ZN4AAHD16illustrate_dlineEi(ptr noundef nonnull align 8 dereferenceable(128) %4, i32 noundef %17)
  br label %18

18:                                               ; preds = %16
  %19 = load i32, ptr %3, align 4, !tbaa !88
  %20 = add nsw i32 %19, 1
  store i32 %20, ptr %3, align 4, !tbaa !88
  br label %5, !llvm.loop !138

21:                                               ; preds = %15
  ret void
}