; Function Attrs: mustprogress nofree norecurse nosync nounwind memory(readwrite, inaccessiblemem: none) uwtable
define void @_ZN4AAHD15illustrate_dirsEv(ptr noundef nonnull readonly align 8 captures(none) dereferenceable(128) %0) local_unnamed_addr #4 align 2 {
  %2 = getelementptr inbounds nuw i8, ptr %0, i64 120
  %3 = load ptr, ptr %2, align 8, !tbaa !95
  %4 = getelementptr inbounds nuw i8, ptr %3, i64 28
  %5 = load i16, ptr %4, align 4, !tbaa !11
  %.not = icmp eq i16 %5, 0
  br i1 %.not, label %._crit_edge, label %.lr.ph

.lr.ph:                                           ; preds = %1
  %6 = getelementptr inbounds nuw i8, ptr %3, i64 30
  %7 = getelementptr inbounds nuw i8, ptr %0, i64 8
  %8 = load ptr, ptr %7, align 8
  %9 = getelementptr inbounds nuw i8, ptr %0, i64 4
  %10 = load i32, ptr %9, align 4
  %11 = getelementptr inbounds nuw i8, ptr %0, i64 16
  %12 = load ptr, ptr %11, align 8
  %13 = getelementptr inbounds nuw i8, ptr %0, i64 40
  %14 = load ptr, ptr %13, align 8
  %15 = getelementptr inbounds nuw i8, ptr %0, i64 64
  %16 = getelementptr inbounds nuw i8, ptr %0, i64 68
  %17 = load i16, ptr %6, align 2, !tbaa !75
  %18 = icmp eq i16 %17, 0
  br i1 %18, label %._crit_edge, label %.lr.ph.split

._crit_edge:                                      ; preds = %_ZN4AAHD16illustrate_dlineEi.exit, %.lr.ph, %1
  ret void

.lr.ph.splitthread-pre-split:                     ; preds = %_ZN4AAHD16illustrate_dlineEi.exit
  %.pr = load i16, ptr %6, align 2, !tbaa !75
  br label %.lr.ph.split

.lr.ph.split:                                     ; preds = %.lr.ph, %.lr.ph.splitthread-pre-split
  %19 = phi i16 [ %.pr, %.lr.ph.splitthread-pre-split ], [ %17, %.lr.ph ]
  %20 = phi i16 [ %54, %.lr.ph.splitthread-pre-split ], [ %5, %.lr.ph ]
  %.03 = phi i32 [ %55, %.lr.ph.splitthread-pre-split ], [ 0, %.lr.ph ]
  %.not29.i = icmp eq i16 %19, 0
  br i1 %.not29.i, label %_ZN4AAHD16illustrate_dlineEi.exit, label %.lr.ph.i

.lr.ph.i:                                         ; preds = %.lr.ph.split
  %21 = add nuw nsw i32 %.03, 4
  %22 = mul nsw i32 %10, %21
  %invariant.op.i = add i32 %22, 4
  %wide.trip.count.i = zext i16 %19 to i64
  br label %23

23:                                               ; preds = %53, %.lr.ph.i
  %indvars.iv.i = phi i64 [ 0, %.lr.ph.i ], [ %indvars.iv.next.i, %53 ]
  %24 = trunc nuw nsw i64 %indvars.iv.i to i32
  %.reass.i = add i32 %invariant.op.i, %24
  %25 = sext i32 %.reass.i to i64
  %26 = getelementptr inbounds [3 x i16], ptr %8, i64 %25, i64 2
  store i16 0, ptr %26, align 2, !tbaa !83
  %27 = getelementptr inbounds [3 x i16], ptr %8, i64 %25, i64 1
  store i16 0, ptr %27, align 2, !tbaa !83
  %28 = getelementptr inbounds [3 x i16], ptr %8, i64 %25
  store i16 0, ptr %28, align 2, !tbaa !83
  %29 = getelementptr inbounds [3 x i16], ptr %12, i64 %25, i64 2
  store i16 0, ptr %29, align 2, !tbaa !83
  %30 = getelementptr inbounds [3 x i16], ptr %12, i64 %25, i64 1
  store i16 0, ptr %30, align 2, !tbaa !83
  %31 = getelementptr inbounds [3 x i16], ptr %12, i64 %25
  store i16 0, ptr %31, align 2, !tbaa !83
  %32 = getelementptr inbounds i8, ptr %14, i64 %25
  %33 = load i8, ptr %32, align 1, !tbaa !104
  %34 = and i8 %33, 1
  %35 = zext nneg i8 %34 to i32
  %36 = and i8 %33, 4
  %.not.i = icmp eq i8 %36, 0
  br i1 %.not.i, label %45, label %37

37:                                               ; preds = %23
  %38 = load i16, ptr %15, align 8, !tbaa !83
  %39 = zext i16 %38 to i32
  %40 = mul nuw nsw i32 %39, %35
  %41 = lshr i32 %40, 2
  %42 = lshr i32 %39, 2
  %43 = add nuw nsw i32 %41, %42
  %44 = trunc nuw nsw i32 %43 to i16
  store i16 %44, ptr %31, align 2, !tbaa !83
  br label %53

45:                                               ; preds = %23
  %46 = load i16, ptr %16, align 4, !tbaa !83
  %47 = zext i16 %46 to i32
  %48 = mul nuw nsw i32 %47, %35
  %49 = lshr i32 %48, 2
  %50 = lshr i32 %47, 2
  %51 = add nuw nsw i32 %49, %50
  %52 = trunc nuw nsw i32 %51 to i16
  store i16 %52, ptr %26, align 2, !tbaa !83
  br label %53

53:                                               ; preds = %45, %37
  %indvars.iv.next.i = add nuw nsw i64 %indvars.iv.i, 1
  %exitcond.not.i = icmp eq i64 %indvars.iv.next.i, %wide.trip.count.i
  br i1 %exitcond.not.i, label %_ZN4AAHD16illustrate_dlineEi.exit.loopexit, label %23, !llvm.loop !135

_ZN4AAHD16illustrate_dlineEi.exit.loopexit:       ; preds = %53
  %.pre = load i16, ptr %4, align 4, !tbaa !11
  br label %_ZN4AAHD16illustrate_dlineEi.exit

_ZN4AAHD16illustrate_dlineEi.exit:                ; preds = %_ZN4AAHD16illustrate_dlineEi.exit.loopexit, %.lr.ph.split
  %54 = phi i16 [ %.pre, %_ZN4AAHD16illustrate_dlineEi.exit.loopexit ], [ %20, %.lr.ph.split ]
  %55 = add nuw nsw i32 %.03, 1
  %56 = zext i16 %54 to i32
  %57 = icmp samesign ult i32 %55, %56
  br i1 %57, label %.lr.ph.splitthread-pre-split, label %._crit_edge, !llvm.loop !136
}